; Function Attrs: mustprogress uwtable
define void @_ZN5faiss5smawkEllPKfPl(i64 noundef %0, i64 noundef %1, ptr noundef %2, ptr nocapture noundef %3) local_unnamed_addr #0 personality ptr @__gxx_personality_v0 {
  %5 = alloca i64, align 8
  %6 = alloca ptr, align 8
  %7 = alloca %"class.std::function", align 8
  store i64 %1, ptr %5, align 8
  store ptr %2, ptr %6, align 8
  %8 = getelementptr inbounds i8, ptr %7, i64 16
  %9 = getelementptr inbounds i8, ptr %7, i64 24
  store ptr %6, ptr %7, align 8
  %.sroa.2.0..sroa_idx = getelementptr inbounds i8, ptr %7, i64 8
  store ptr %5, ptr %.sroa.2.0..sroa_idx, align 8
  store ptr @"_ZNSt17_Function_handlerIFfllEZN5faiss5smawkEllPKfPlE3$_0E9_M_invokeERKSt9_Any_dataOlSA_", ptr %9, align 8
  store ptr @"_ZNSt17_Function_handlerIFfllEZN5faiss5smawkEllPKfPlE3$_0E10_M_managerERSt9_Any_dataRKS7_St18_Manager_operation", ptr %8, align 8
  invoke void @_ZN5faiss5smawkEllRKSt8functionIFfllEEPl(i64 noundef %0, i64 noundef %1, ptr noundef nonnull align 8 dereferenceable(32) %7, ptr noundef %3)
          to label %10 unwind label %17

10:                                               ; preds = %4
  %11 = load ptr, ptr %8, align 8
  %.not.i.i = icmp eq ptr %11, null
  br i1 %.not.i.i, label %_ZNSt8functionIFfllEED2Ev.exit, label %12

12:                                               ; preds = %10
  %13 = invoke noundef zeroext i1 %11(ptr noundef nonnull align 8 dereferenceable(16) %7, ptr noundef nonnull align 8 dereferenceable(16) %7, i32 noundef 3)
          to label %_ZNSt8functionIFfllEED2Ev.exit unwind label %14

14:                                               ; preds = %12
  %15 = landingpad { ptr, i32 }
          catch ptr null
  %16 = extractvalue { ptr, i32 } %15, 0
  call void @__clang_call_terminate(ptr %16) #20
  unreachable

_ZNSt8functionIFfllEED2Ev.exit:                   ; preds = %10, %12
  ret void

17:                                               ; preds = %4
  %18 = landingpad { ptr, i32 }
          cleanup
  %19 = load ptr, ptr %8, align 8
  %.not.i.i3 = icmp eq ptr %19, null
  br i1 %.not.i.i3, label %_ZNSt8functionIFfllEED2Ev.exit4, label %20

20:                                               ; preds = %17
  %21 = invoke noundef zeroext i1 %19(ptr noundef nonnull align 8 dereferenceable(16) %7, ptr noundef nonnull align 8 dereferenceable(16) %7, i32 noundef 3)
          to label %_ZNSt8functionIFfllEED2Ev.exit4 unwind label %22

22:                                               ; preds = %20
  %23 = landingpad { ptr, i32 }
          catch ptr null
  %24 = extractvalue { ptr, i32 } %23, 0
  call void @__clang_call_terminate(ptr %24) #20
  unreachable

_ZNSt8functionIFfllEED2Ev.exit4:                  ; preds = %17, %20
  resume { ptr, i32 } %18
}